target datalayout = "e-m:e-p270:32:32-p271:32:32-p272:64:64-i64:64-i128:128-f80:128-n8:16:32:64-S128"
target triple = "x86_64-pc-linux-gnu"

%struct._priv_exr_context_t = type { i8, i8, i8, i8, i8, i8, i8, i8, %struct.exr_attr_string_t, %struct.exr_attr_string_t, ptr, ptr, ptr, ptr, ptr, ptr, ptr, ptr, i32, i32, i32, i32, i32, float, ptr, ptr, ptr, i64, ptr, ptr, i64, i32, i32, i32, i32, %struct._priv_exr_part_t, ptr, ptr, %struct.exr_attribute_list, %union.pthread_mutex_t, i8, i8, [2 x i8], i32 }
%struct.exr_attr_string_t = type { i32, i32, ptr }
%struct._priv_exr_part_t = type { i32, i32, %struct.exr_attribute_list, ptr, ptr, ptr, ptr, ptr, ptr, ptr, ptr, ptr, ptr, ptr, ptr, ptr, ptr, %struct.exr_attr_box2i_t, %struct.exr_attr_box2i_t, i32, i32, i32, float, i32, i32, ptr, ptr, ptr, ptr, i64, i16, i16, i32, i64, i64 }
%struct.exr_attr_box2i_t = type { %struct.exr_attr_v2i_t, %struct.exr_attr_v2i_t }
%struct.exr_attr_v2i_t = type { i32, i32 }
%struct.exr_attribute_list = type { i32, i32, ptr, ptr }
%union.pthread_mutex_t = type { %struct.__pthread_mutex_s }
%struct.__pthread_mutex_s = type { i32, i32, i32, i32, i32, i16, i16, %struct.__pthread_internal_list }
%struct.__pthread_internal_list = type { ptr, ptr }
%struct.exr_attribute_t = type { ptr, ptr, i8, i8, [2 x i8], i32, %union.anon }
%union.anon = type { double }
%struct.exr_attr_tiledesc_t = type <{ i32, i32, i8 }>

@.str = private unnamed_addr constant [29 x i8] c"Part index (%d) out of range\00", align 1
@.str.4 = private unnamed_addr constant [46 x i8] c"Invalid required attribute type '%s' for '%s'\00", align 1
@.str.16 = private unnamed_addr constant [48 x i8] c"Attempt to set tile descriptor on scanline part\00", align 1
@.str.17 = private unnamed_addr constant [6 x i8] c"tiles\00", align 1

; Function Attrs: inlinehint nounwind uwtable
define internal void @internal_exr_unlock(ptr noundef %0) #2 {
  %2 = alloca ptr, align 8
  %3 = alloca ptr, align 8
  store ptr %0, ptr %2, align 8, !tbaa !3
  call void @llvm.lifetime.start.p0(i64 8, ptr %3) #8
  %4 = load ptr, ptr %2, align 8, !tbaa !3
  %5 = ptrtoint ptr %4 to i64
  %6 = inttoptr i64 %5 to ptr
  store ptr %6, ptr %3, align 8, !tbaa !3
  %7 = load ptr, ptr %3, align 8, !tbaa !3
  %8 = getelementptr inbounds nuw %struct._priv_exr_context_t, ptr %7, i32 0, i32 39
  %9 = call i32 @pthread_mutex_unlock(ptr noundef %8) #8
  call void @llvm.lifetime.end.p0(i64 8, ptr %3) #8
  ret void
}

; Function Attrs: inlinehint nounwind uwtable
define internal void @internal_exr_lock(ptr noundef %0) #2 {
  %2 = alloca ptr, align 8
  %3 = alloca ptr, align 8
  store ptr %0, ptr %2, align 8, !tbaa !3
  call void @llvm.lifetime.start.p0(i64 8, ptr %3) #8
  %4 = load ptr, ptr %2, align 8, !tbaa !3
  %5 = ptrtoint ptr %4 to i64
  %6 = inttoptr i64 %5 to ptr
  store ptr %6, ptr %3, align 8, !tbaa !3
  %7 = load ptr, ptr %3, align 8, !tbaa !3
  %8 = getelementptr inbounds nuw %struct._priv_exr_context_t, ptr %7, i32 0, i32 39
  %9 = call i32 @pthread_mutex_lock(ptr noundef %8) #8
  call void @llvm.lifetime.end.p0(i64 8, ptr %3) #8
  ret void
}

; Function Attrs: nounwind uwtable
define i32 @exr_set_tile_descriptor(ptr noundef %0, i32 noundef %1, i32 noundef %2, i32 noundef %3, i32 noundef %4, i32 noundef %5) #0 {
  %7 = alloca i32, align 4
  %8 = alloca ptr, align 8
  %9 = alloca i32, align 4
  %10 = alloca i32, align 4
  %11 = alloca i32, align 4
  %12 = alloca i32, align 4
  %13 = alloca i32, align 4
  %14 = alloca i32, align 4
  %15 = alloca ptr, align 8
  %16 = alloca ptr, align 8
  %17 = alloca i32, align 4
  store ptr %0, ptr %8, align 8, !tbaa !3
  store i32 %1, ptr %9, align 4, !tbaa !8
  store i32 %2, ptr %10, align 4, !tbaa !8
  store i32 %3, ptr %11, align 4, !tbaa !8
  store i32 %4, ptr %12, align 4, !tbaa !8
  store i32 %5, ptr %13, align 4, !tbaa !8
  call void @llvm.lifetime.start.p0(i64 4, ptr %14) #8
  store i32 0, ptr %14, align 4, !tbaa !8
  call void @llvm.lifetime.start.p0(i64 8, ptr %15) #8
  store ptr null, ptr %15, align 8, !tbaa !35
  call void @llvm.lifetime.start.p0(i64 8, ptr %16) #8
  %18 = load ptr, ptr %8, align 8, !tbaa !3
  %19 = icmp ne ptr %18, null
  br i1 %19, label %21, label %20

20:                                               ; preds = %6
  store i32 2, ptr %7, align 4
  store i32 1, ptr %17, align 4
  br label %159

21:                                               ; preds = %6
  %22 = load ptr, ptr %8, align 8, !tbaa !3
  call void @internal_exr_lock(ptr noundef %22)
  %23 = load i32, ptr %9, align 4, !tbaa !8
  %24 = icmp slt i32 %23, 0
  br i1 %24, label %31, label %25

25:                                               ; preds = %21
  %26 = load i32, ptr %9, align 4, !tbaa !8
  %27 = load ptr, ptr %8, align 8, !tbaa !3
  %28 = getelementptr inbounds nuw %struct._priv_exr_context_t, ptr %27, i32 0, i32 34
  %29 = load i32, ptr %28, align 4, !tbaa !26
  %30 = icmp sge i32 %26, %29
  br i1 %30, label %31, label %39

31:                                               ; preds = %25, %21
  %32 = load ptr, ptr %8, align 8, !tbaa !3
  call void @internal_exr_unlock(ptr noundef %32)
  %33 = load ptr, ptr %8, align 8, !tbaa !3
  %34 = getelementptr inbounds nuw %struct._priv_exr_context_t, ptr %33, i32 0, i32 14
  %35 = load ptr, ptr %34, align 8, !tbaa !27
  %36 = load ptr, ptr %8, align 8, !tbaa !3
  %37 = load i32, ptr %9, align 4, !tbaa !8
  %38 = call i32 (ptr, i32, ptr, ...) %35(ptr noundef %36, i32 noundef 4, ptr noundef @.str, i32 noundef %37)
  store i32 %38, ptr %7, align 4
  store i32 1, ptr %17, align 4
  br label %159

39:                                               ; preds = %25
  %40 = load ptr, ptr %8, align 8, !tbaa !3
  %41 = getelementptr inbounds nuw %struct._priv_exr_context_t, ptr %40, i32 0, i32 37
  %42 = load ptr, ptr %41, align 8, !tbaa !28
  %43 = load i32, ptr %9, align 4, !tbaa !8
  %44 = sext i32 %43 to i64
  %45 = getelementptr inbounds ptr, ptr %42, i64 %44
  %46 = load ptr, ptr %45, align 8, !tbaa !29
  store ptr %46, ptr %16, align 8, !tbaa !29
  %47 = load ptr, ptr %8, align 8, !tbaa !3
  %48 = getelementptr inbounds nuw %struct._priv_exr_context_t, ptr %47, i32 0, i32 0
  %49 = load i8, ptr %48, align 8, !tbaa !12
  %50 = zext i8 %49 to i32
  %51 = icmp eq i32 %50, 0
  br i1 %51, label %52, label %59

52:                                               ; preds = %39
  %53 = load ptr, ptr %8, align 8, !tbaa !3
  call void @internal_exr_unlock(ptr noundef %53)
  %54 = load ptr, ptr %8, align 8, !tbaa !3
  %55 = getelementptr inbounds nuw %struct._priv_exr_context_t, ptr %54, i32 0, i32 12
  %56 = load ptr, ptr %55, align 8, !tbaa !31
  %57 = load ptr, ptr %8, align 8, !tbaa !3
  %58 = call i32 %56(ptr noundef %57, i32 noundef 8)
  store i32 %58, ptr %7, align 4
  store i32 1, ptr %17, align 4
  br label %159

59:                                               ; preds = %39
  %60 = load ptr, ptr %8, align 8, !tbaa !3
  %61 = getelementptr inbounds nuw %struct._priv_exr_context_t, ptr %60, i32 0, i32 0
  %62 = load i8, ptr %61, align 8, !tbaa !12
  %63 = zext i8 %62 to i32
  %64 = icmp eq i32 %63, 3
  br i1 %64, label %65, label %72

65:                                               ; preds = %59
  %66 = load ptr, ptr %8, align 8, !tbaa !3
  call void @internal_exr_unlock(ptr noundef %66)
  %67 = load ptr, ptr %8, align 8, !tbaa !3
  %68 = getelementptr inbounds nuw %struct._priv_exr_context_t, ptr %67, i32 0, i32 12
  %69 = load ptr, ptr %68, align 8, !tbaa !31
  %70 = load ptr, ptr %8, align 8, !tbaa !3
  %71 = call i32 %69(ptr noundef %70, i32 noundef 21)
  store i32 %71, ptr %7, align 4
  store i32 1, ptr %17, align 4
  br label %159

72:                                               ; preds = %59
  %73 = load ptr, ptr %16, align 8, !tbaa !29
  %74 = getelementptr inbounds nuw %struct._priv_exr_part_t, ptr %73, i32 0, i32 1
  %75 = load i32, ptr %74, align 4, !tbaa !100
  %76 = icmp eq i32 %75, 0
  br i1 %76, label %82, label %77

77:                                               ; preds = %72
  %78 = load ptr, ptr %16, align 8, !tbaa !29
  %79 = getelementptr inbounds nuw %struct._priv_exr_part_t, ptr %78, i32 0, i32 1
  %80 = load i32, ptr %79, align 4, !tbaa !100
  %81 = icmp eq i32 %80, 2
  br i1 %81, label %82, label %89

82:                                               ; preds = %77, %72
  %83 = load ptr, ptr %8, align 8, !tbaa !3
  call void @internal_exr_unlock(ptr noundef %83)
  %84 = load ptr, ptr %8, align 8, !tbaa !3
  %85 = getelementptr inbounds nuw %struct._priv_exr_context_t, ptr %84, i32 0, i32 13
  %86 = load ptr, ptr %85, align 8, !tbaa !45
  %87 = load ptr, ptr %8, align 8, !tbaa !3
  %88 = call i32 %86(ptr noundef %87, i32 noundef 19, ptr noundef @.str.16)
  store i32 %88, ptr %7, align 4
  store i32 1, ptr %17, align 4
  br label %159

89:                                               ; preds = %77
  %90 = load ptr, ptr %16, align 8, !tbaa !29
  %91 = getelementptr inbounds nuw %struct._priv_exr_part_t, ptr %90, i32 0, i32 11
  %92 = load ptr, ptr %91, align 8, !tbaa !65
  %93 = icmp ne ptr %92, null
  br i1 %93, label %101, label %94

94:                                               ; preds = %89
  %95 = load ptr, ptr %8, align 8, !tbaa !3
  %96 = load ptr, ptr %16, align 8, !tbaa !29
  %97 = getelementptr inbounds nuw %struct._priv_exr_part_t, ptr %96, i32 0, i32 2
  %98 = load ptr, ptr %16, align 8, !tbaa !29
  %99 = getelementptr inbounds nuw %struct._priv_exr_part_t, ptr %98, i32 0, i32 11
  %100 = call i32 @exr_attr_list_add(ptr noundef %95, ptr noundef %97, ptr noundef @.str.17, i32 noundef 21, i32 noundef 0, ptr noundef null, ptr noundef %99)
  store i32 %100, ptr %14, align 4, !tbaa !8
  br label %121

101:                                              ; preds = %89
  %102 = load ptr, ptr %16, align 8, !tbaa !29
  %103 = getelementptr inbounds nuw %struct._priv_exr_part_t, ptr %102, i32 0, i32 11
  %104 = load ptr, ptr %103, align 8, !tbaa !65
  %105 = getelementptr inbounds nuw %struct.exr_attribute_t, ptr %104, i32 0, i32 5
  %106 = load i32, ptr %105, align 4, !tbaa !39
  %107 = icmp ne i32 %106, 21
  br i1 %107, label %108, label %120

108:                                              ; preds = %101
  %109 = load ptr, ptr %8, align 8, !tbaa !3
  call void @internal_exr_unlock(ptr noundef %109)
  %110 = load ptr, ptr %8, align 8, !tbaa !3
  %111 = getelementptr inbounds nuw %struct._priv_exr_context_t, ptr %110, i32 0, i32 14
  %112 = load ptr, ptr %111, align 8, !tbaa !27
  %113 = load ptr, ptr %8, align 8, !tbaa !3
  %114 = load ptr, ptr %16, align 8, !tbaa !29
  %115 = getelementptr inbounds nuw %struct._priv_exr_part_t, ptr %114, i32 0, i32 11
  %116 = load ptr, ptr %115, align 8, !tbaa !65
  %117 = getelementptr inbounds nuw %struct.exr_attribute_t, ptr %116, i32 0, i32 1
  %118 = load ptr, ptr %117, align 8, !tbaa !41
  %119 = call i32 (ptr, i32, ptr, ...) %112(ptr noundef %113, i32 noundef 6, ptr noundef @.str.4, ptr noundef %118, ptr noundef @.str.17)
  store i32 %119, ptr %7, align 4
  store i32 1, ptr %17, align 4
  br label %159

120:                                              ; preds = %101
  br label %121

121:                                              ; preds = %120, %94
  %122 = load ptr, ptr %16, align 8, !tbaa !29
  %123 = getelementptr inbounds nuw %struct._priv_exr_part_t, ptr %122, i32 0, i32 11
  %124 = load ptr, ptr %123, align 8, !tbaa !65
  store ptr %124, ptr %15, align 8, !tbaa !35
  %125 = load i32, ptr %14, align 4, !tbaa !8
  %126 = icmp eq i32 %125, 0
  br i1 %126, label %127, label %156

127:                                              ; preds = %121
  %128 = load i32, ptr %10, align 4, !tbaa !8
  %129 = load ptr, ptr %15, align 8, !tbaa !35
  %130 = getelementptr inbounds nuw %struct.exr_attribute_t, ptr %129, i32 0, i32 6
  %131 = load ptr, ptr %130, align 8, !tbaa !42
  %132 = getelementptr inbounds nuw %struct.exr_attr_tiledesc_t, ptr %131, i32 0, i32 0
  store i32 %128, ptr %132, align 1, !tbaa !96
  %133 = load i32, ptr %11, align 4, !tbaa !8
  %134 = load ptr, ptr %15, align 8, !tbaa !35
  %135 = getelementptr inbounds nuw %struct.exr_attribute_t, ptr %134, i32 0, i32 6
  %136 = load ptr, ptr %135, align 8, !tbaa !42
  %137 = getelementptr inbounds nuw %struct.exr_attr_tiledesc_t, ptr %136, i32 0, i32 1
  store i32 %133, ptr %137, align 1, !tbaa !98
  %138 = load i32, ptr %13, align 4, !tbaa !8
  %139 = and i32 %138, 15
  %140 = trunc i32 %139 to i8
  %141 = zext i8 %140 to i32
  %142 = shl i32 %141, 4
  %143 = load i32, ptr %12, align 4, !tbaa !8
  %144 = and i32 %143, 15
  %145 = trunc i32 %144 to i8
  %146 = zext i8 %145 to i32
  %147 = or i32 %142, %146
  %148 = trunc i32 %147 to i8
  %149 = load ptr, ptr %15, align 8, !tbaa !35
  %150 = getelementptr inbounds nuw %struct.exr_attribute_t, ptr %149, i32 0, i32 6
  %151 = load ptr, ptr %150, align 8, !tbaa !42
  %152 = getelementptr inbounds nuw %struct.exr_attr_tiledesc_t, ptr %151, i32 0, i32 2
  store i8 %148, ptr %152, align 1, !tbaa !99
  %153 = load ptr, ptr %8, align 8, !tbaa !3
  %154 = load ptr, ptr %16, align 8, !tbaa !29
  %155 = call i32 @internal_exr_compute_tile_information(ptr noundef %153, ptr noundef %154, i32 noundef 1)
  store i32 %155, ptr %14, align 4, !tbaa !8
  br label %156

156:                                              ; preds = %127, %121
  %157 = load ptr, ptr %8, align 8, !tbaa !3
  call void @internal_exr_unlock(ptr noundef %157)
  %158 = load i32, ptr %14, align 4, !tbaa !8
  store i32 %158, ptr %7, align 4
  store i32 1, ptr %17, align 4
  br label %159

159:                                              ; preds = %156, %108, %82, %65, %52, %31, %20
  call void @llvm.lifetime.end.p0(i64 8, ptr %16) #8
  call void @llvm.lifetime.end.p0(i64 8, ptr %15) #8
  call void @llvm.lifetime.end.p0(i64 4, ptr %14) #8
  %160 = load i32, ptr %7, align 4
  ret i32 %160
}