; Function Attrs: nounwind uwtable
define i32 @exr_set_tile_descriptor(ptr noundef %0, i32 noundef %1, i32 noundef %2, i32 noundef %3, i32 noundef %4, i32 noundef %5) local_unnamed_addr #0 {
  %.not = icmp eq ptr %0, null
  br i1 %.not, label %76, label %7

7:                                                ; preds = %6
  %8 = getelementptr inbounds nuw i8, ptr %0, i64 504
  %9 = tail call i32 @pthread_mutex_lock(ptr noundef nonnull %8) #6
  %10 = icmp slt i32 %1, 0
  br i1 %10, label %14, label %11

11:                                               ; preds = %7
  %12 = getelementptr inbounds nuw i8, ptr %0, i64 196
  %13 = load i32, ptr %12, align 4, !tbaa !22
  %.not52 = icmp slt i32 %1, %13
  br i1 %.not52, label %19, label %14

14:                                               ; preds = %11, %7
  %15 = tail call i32 @pthread_mutex_unlock(ptr noundef nonnull %8) #6
  %16 = getelementptr inbounds nuw i8, ptr %0, i64 72
  %17 = load ptr, ptr %16, align 8, !tbaa !23
  %18 = tail call i32 (ptr, i32, ptr, ...) %17(ptr noundef nonnull %0, i32 noundef 4, ptr noundef nonnull @.str, i32 noundef %1) #6
  br label %76

19:                                               ; preds = %11
  %20 = getelementptr inbounds nuw i8, ptr %0, i64 472
  %21 = load ptr, ptr %20, align 8, !tbaa !24
  %22 = zext nneg i32 %1 to i64
  %23 = getelementptr inbounds nuw ptr, ptr %21, i64 %22
  %24 = load ptr, ptr %23, align 8, !tbaa !25
  %25 = load i8, ptr %0, align 8, !tbaa !3
  switch i8 %25, label %36 [
    i8 0, label %26
    i8 3, label %31
  ]

26:                                               ; preds = %19
  %27 = tail call i32 @pthread_mutex_unlock(ptr noundef nonnull %8) #6
  %28 = getelementptr inbounds nuw i8, ptr %0, i64 56
  %29 = load ptr, ptr %28, align 8, !tbaa !27
  %30 = tail call i32 %29(ptr noundef nonnull %0, i32 noundef 8) #6
  br label %76

31:                                               ; preds = %19
  %32 = tail call i32 @pthread_mutex_unlock(ptr noundef nonnull %8) #6
  %33 = getelementptr inbounds nuw i8, ptr %0, i64 56
  %34 = load ptr, ptr %33, align 8, !tbaa !27
  %35 = tail call i32 %34(ptr noundef nonnull %0, i32 noundef 21) #6
  br label %76

36:                                               ; preds = %19
  %37 = getelementptr inbounds nuw i8, ptr %24, i64 4
  %38 = load i32, ptr %37, align 4, !tbaa !88
  switch i32 %38, label %44 [
    i32 0, label %39
    i32 2, label %39
  ]

39:                                               ; preds = %36, %36
  %40 = tail call i32 @pthread_mutex_unlock(ptr noundef nonnull %8) #6
  %41 = getelementptr inbounds nuw i8, ptr %0, i64 64
  %42 = load ptr, ptr %41, align 8, !tbaa !38
  %43 = tail call i32 %42(ptr noundef nonnull %0, i32 noundef 19, ptr noundef nonnull @.str.16) #6
  br label %76

44:                                               ; preds = %36
  %45 = getelementptr inbounds nuw i8, ptr %24, i64 96
  %46 = load ptr, ptr %45, align 8, !tbaa !83
  %.not53 = icmp eq ptr %46, null
  br i1 %.not53, label %58, label %47

47:                                               ; preds = %44
  %48 = getelementptr inbounds nuw i8, ptr %46, i64 20
  %49 = load i32, ptr %48, align 4, !tbaa !32
  %.not54 = icmp eq i32 %49, 21
  br i1 %.not54, label %.thread, label %50

50:                                               ; preds = %47
  %51 = tail call i32 @pthread_mutex_unlock(ptr noundef nonnull %8) #6
  %52 = getelementptr inbounds nuw i8, ptr %0, i64 72
  %53 = load ptr, ptr %52, align 8, !tbaa !23
  %54 = load ptr, ptr %45, align 8, !tbaa !83
  %55 = getelementptr inbounds nuw i8, ptr %54, i64 8
  %56 = load ptr, ptr %55, align 8, !tbaa !34
  %57 = tail call i32 (ptr, i32, ptr, ...) %53(ptr noundef nonnull %0, i32 noundef 6, ptr noundef nonnull @.str.4, ptr noundef %56, ptr noundef nonnull @.str.17) #6
  br label %76

58:                                               ; preds = %44
  %59 = getelementptr inbounds nuw i8, ptr %24, i64 8
  %60 = tail call i32 @exr_attr_list_add(ptr noundef nonnull %0, ptr noundef nonnull %59, ptr noundef nonnull @.str.17, i32 noundef 21, i32 noundef 0, ptr noundef null, ptr noundef nonnull %45) #6
  %61 = icmp eq i32 %60, 0
  br i1 %61, label %..thread_crit_edge, label %74

..thread_crit_edge:                               ; preds = %58
  %.pre = load ptr, ptr %45, align 8, !tbaa !83
  br label %.thread

.thread:                                          ; preds = %..thread_crit_edge, %47
  %62 = phi ptr [ %.pre, %..thread_crit_edge ], [ %46, %47 ]
  %63 = getelementptr inbounds nuw i8, ptr %62, i64 24
  %64 = load ptr, ptr %63, align 8, !tbaa !35
  store i32 %2, ptr %64, align 1, !tbaa !84
  %65 = load ptr, ptr %63, align 8, !tbaa !35
  %66 = getelementptr inbounds nuw i8, ptr %65, i64 4
  store i32 %3, ptr %66, align 1, !tbaa !86
  %67 = shl i32 %5, 4
  %68 = and i32 %4, 15
  %69 = or disjoint i32 %67, %68
  %70 = trunc i32 %69 to i8
  %71 = load ptr, ptr %63, align 8, !tbaa !35
  %72 = getelementptr inbounds nuw i8, ptr %71, i64 8
  store i8 %70, ptr %72, align 1, !tbaa !87
  %73 = tail call i32 @internal_exr_compute_tile_information(ptr noundef nonnull %0, ptr noundef nonnull %24, i32 noundef 1) #6
  br label %74

74:                                               ; preds = %.thread, %58
  %.1 = phi i32 [ %73, %.thread ], [ %60, %58 ]
  %75 = tail call i32 @pthread_mutex_unlock(ptr noundef nonnull %8) #6
  br label %76

76:                                               ; preds = %6, %74, %50, %39, %31, %26, %14
  %.0 = phi i32 [ %18, %14 ], [ %30, %26 ], [ %35, %31 ], [ %43, %39 ], [ %57, %50 ], [ %.1, %74 ], [ 2, %6 ]
  ret i32 %.0
}